; Function Attrs: mustprogress sspstrong uwtable
define noundef ptr @_ZN3tbb6detail2r121current_suspend_pointEv() local_unnamed_addr #2 {
  %1 = load i32, ptr @_ZN3tbb6detail2r18governor6theTLSE, align 4, !tbaa !122
  %2 = tail call noundef ptr @pthread_getspecific(i32 noundef %1) #6
  %.not.i = icmp eq ptr %2, null
  br i1 %.not.i, label %3, label %_ZN3tbb6detail2r18governor15get_thread_dataEv.exit

3:                                                ; preds = %0
  tail call void @_ZN3tbb6detail2r18governor20init_external_threadEv()
  %4 = load i32, ptr @_ZN3tbb6detail2r18governor6theTLSE, align 4, !tbaa !122
  %5 = tail call noundef ptr @pthread_getspecific(i32 noundef %4) #6
  br label %_ZN3tbb6detail2r18governor15get_thread_dataEv.exit

_ZN3tbb6detail2r18governor15get_thread_dataEv.exit: ; preds = %0, %3
  %.0.i = phi ptr [ %5, %3 ], [ %2, %0 ]
  %6 = getelementptr inbounds nuw i8, ptr %.0.i, i64 24
  %7 = load ptr, ptr %6, align 8, !tbaa !92
  %8 = tail call noundef ptr @_ZN3tbb6detail2r115task_dispatcher17get_suspend_pointEv(ptr noundef nonnull align 128 dereferenceable(128) %7)
  ret ptr %8
}